; Function Attrs: mustprogress uwtable
define void @_ZN13sentencepiece17SentencePieceText8CopyFromERKS0_(ptr noundef nonnull align 8 dereferenceable(88) %0, ptr noundef nonnull align 8 dereferenceable(88) %1) local_unnamed_addr #3 align 2 {
  %3 = icmp eq ptr %1, %0
  br i1 %3, label %5, label %4

4:                                                ; preds = %2
  tail call void @_ZN13sentencepiece17SentencePieceText5ClearEv(ptr noundef nonnull align 8 dereferenceable(88) %0)
  tail call void @_ZN13sentencepiece17SentencePieceText9MergeFromERKS0_(ptr noundef nonnull align 8 dereferenceable(88) %0, ptr noundef nonnull align 8 dereferenceable(88) %1)
  br label %5

5:                                                ; preds = %2, %4
  ret void
}